target datalayout = "e-m:e-p270:32:32-p271:32:32-p272:64:64-i64:64-i128:128-f80:128-n8:16:32:64-S128"
target triple = "x86_64-pc-linux-gnu"

%struct._zend_mm_heap = type { i32, ptr, i64, i64, [30 x ptr], i64, i64, i64, i32, ptr, ptr, ptr, i32, i32, i32, double, i32, i32, %struct.anon, ptr }
%struct.anon = type { ptr, ptr, ptr }
%struct._zend_mm_chunk = type { ptr, ptr, ptr, i32, i32, i32, [28 x i8], %struct._zend_mm_heap, [8 x i64], [512 x i32] }
%struct._zend_mm_storage = type { %struct._zend_mm_handlers, ptr }
%struct._zend_mm_handlers = type { ptr, ptr, ptr, ptr }

@stderr = external global ptr, align 8
@.str.2 = private unnamed_addr constant [23 x i8] c"Can't initialize heap\0A\00", align 1

; Function Attrs: nounwind uwtable
define ptr @zend_mm_startup_ex(ptr noundef %0, ptr noundef %1, i64 noundef %2) #0 {
  %4 = alloca ptr, align 8
  %5 = alloca ptr, align 8
  %6 = alloca ptr, align 8
  %7 = alloca i64, align 8
  %8 = alloca %struct._zend_mm_storage, align 8
  %9 = alloca ptr, align 8
  %10 = alloca ptr, align 8
  %11 = alloca ptr, align 8
  store ptr %0, ptr %5, align 8
  store ptr %1, ptr %6, align 8
  store i64 %2, ptr %7, align 8
  %12 = getelementptr inbounds %struct._zend_mm_storage, ptr %8, i32 0, i32 0
  %13 = load ptr, ptr %5, align 8
  call void @llvm.memcpy.p0.p0.i64(ptr align 8 %12, ptr align 8 %13, i64 32, i1 false)
  %14 = load ptr, ptr %6, align 8
  %15 = getelementptr inbounds %struct._zend_mm_storage, ptr %8, i32 0, i32 1
  store ptr %14, ptr %15, align 8
  %16 = load ptr, ptr %5, align 8
  %17 = getelementptr inbounds %struct._zend_mm_handlers, ptr %16, i32 0, i32 0
  %18 = load ptr, ptr %17, align 8
  %19 = call ptr %18(ptr noundef %8, i64 noundef 2097152, i64 noundef 2097152)
  store ptr %19, ptr %10, align 8
  %20 = load ptr, ptr %10, align 8
  %21 = icmp eq ptr %20, null
  %22 = xor i1 %21, true
  %23 = xor i1 %22, true
  %24 = zext i1 %23 to i32
  %25 = sext i32 %24 to i64
  %26 = icmp ne i64 %25, 0
  br i1 %26, label %27, label %30

27:                                               ; preds = %3
  %28 = load ptr, ptr @stderr, align 8
  %29 = call i32 (ptr, ptr, ...) @fprintf(ptr noundef %28, ptr noundef @.str.2) #20
  store ptr null, ptr %4, align 8
  br label %124

30:                                               ; preds = %3
  %31 = load ptr, ptr %10, align 8
  %32 = getelementptr inbounds %struct._zend_mm_chunk, ptr %31, i32 0, i32 7
  store ptr %32, ptr %11, align 8
  %33 = load ptr, ptr %11, align 8
  %34 = load ptr, ptr %10, align 8
  %35 = getelementptr inbounds %struct._zend_mm_chunk, ptr %34, i32 0, i32 0
  store ptr %33, ptr %35, align 8
  %36 = load ptr, ptr %10, align 8
  %37 = load ptr, ptr %10, align 8
  %38 = getelementptr inbounds %struct._zend_mm_chunk, ptr %37, i32 0, i32 1
  store ptr %36, ptr %38, align 8
  %39 = load ptr, ptr %10, align 8
  %40 = load ptr, ptr %10, align 8
  %41 = getelementptr inbounds %struct._zend_mm_chunk, ptr %40, i32 0, i32 2
  store ptr %39, ptr %41, align 8
  %42 = load ptr, ptr %10, align 8
  %43 = getelementptr inbounds %struct._zend_mm_chunk, ptr %42, i32 0, i32 3
  store i32 511, ptr %43, align 8
  %44 = load ptr, ptr %10, align 8
  %45 = getelementptr inbounds %struct._zend_mm_chunk, ptr %44, i32 0, i32 4
  store i32 1, ptr %45, align 4
  %46 = load ptr, ptr %10, align 8
  %47 = getelementptr inbounds %struct._zend_mm_chunk, ptr %46, i32 0, i32 5
  store i32 0, ptr %47, align 8
  %48 = load ptr, ptr %10, align 8
  %49 = getelementptr inbounds %struct._zend_mm_chunk, ptr %48, i32 0, i32 8
  %50 = getelementptr inbounds [8 x i64], ptr %49, i64 0, i64 0
  store i64 1, ptr %50, align 8
  %51 = load ptr, ptr %10, align 8
  %52 = getelementptr inbounds %struct._zend_mm_chunk, ptr %51, i32 0, i32 9
  %53 = getelementptr inbounds [512 x i32], ptr %52, i64 0, i64 0
  store i32 1073741825, ptr %53, align 8
  %54 = load ptr, ptr %10, align 8
  %55 = load ptr, ptr %11, align 8
  %56 = getelementptr inbounds %struct._zend_mm_heap, ptr %55, i32 0, i32 10
  store ptr %54, ptr %56, align 8
  %57 = load ptr, ptr %11, align 8
  %58 = getelementptr inbounds %struct._zend_mm_heap, ptr %57, i32 0, i32 11
  store ptr null, ptr %58, align 8
  %59 = load ptr, ptr %11, align 8
  %60 = getelementptr inbounds %struct._zend_mm_heap, ptr %59, i32 0, i32 12
  store i32 1, ptr %60, align 8
  %61 = load ptr, ptr %11, align 8
  %62 = getelementptr inbounds %struct._zend_mm_heap, ptr %61, i32 0, i32 13
  store i32 1, ptr %62, align 4
  %63 = load ptr, ptr %11, align 8
  %64 = getelementptr inbounds %struct._zend_mm_heap, ptr %63, i32 0, i32 14
  store i32 0, ptr %64, align 8
  %65 = load ptr, ptr %11, align 8
  %66 = getelementptr inbounds %struct._zend_mm_heap, ptr %65, i32 0, i32 15
  store double 1.000000e+00, ptr %66, align 8
  %67 = load ptr, ptr %11, align 8
  %68 = getelementptr inbounds %struct._zend_mm_heap, ptr %67, i32 0, i32 16
  store i32 0, ptr %68, align 8
  %69 = load ptr, ptr %11, align 8
  %70 = getelementptr inbounds %struct._zend_mm_heap, ptr %69, i32 0, i32 17
  store i32 0, ptr %70, align 4
  %71 = load ptr, ptr %11, align 8
  %72 = getelementptr inbounds %struct._zend_mm_heap, ptr %71, i32 0, i32 5
  store i64 2097152, ptr %72, align 8
  %73 = load ptr, ptr %11, align 8
  %74 = getelementptr inbounds %struct._zend_mm_heap, ptr %73, i32 0, i32 6
  store i64 2097152, ptr %74, align 8
  %75 = load ptr, ptr %11, align 8
  %76 = getelementptr inbounds %struct._zend_mm_heap, ptr %75, i32 0, i32 2
  store i64 0, ptr %76, align 8
  %77 = load ptr, ptr %11, align 8
  %78 = getelementptr inbounds %struct._zend_mm_heap, ptr %77, i32 0, i32 3
  store i64 0, ptr %78, align 8
  %79 = load ptr, ptr %11, align 8
  %80 = getelementptr inbounds %struct._zend_mm_heap, ptr %79, i32 0, i32 7
  store i64 9223372036854775807, ptr %80, align 8
  %81 = load ptr, ptr %11, align 8
  %82 = getelementptr inbounds %struct._zend_mm_heap, ptr %81, i32 0, i32 8
  store i32 0, ptr %82, align 8
  %83 = load ptr, ptr %11, align 8
  %84 = getelementptr inbounds %struct._zend_mm_heap, ptr %83, i32 0, i32 0
  store i32 0, ptr %84, align 8
  %85 = load ptr, ptr %11, align 8
  %86 = getelementptr inbounds %struct._zend_mm_heap, ptr %85, i32 0, i32 1
  store ptr %8, ptr %86, align 8
  %87 = load ptr, ptr %11, align 8
  %88 = getelementptr inbounds %struct._zend_mm_heap, ptr %87, i32 0, i32 9
  store ptr null, ptr %88, align 8
  %89 = load ptr, ptr %11, align 8
  %90 = getelementptr inbounds %struct._zend_mm_heap, ptr %89, i32 0, i32 4
  %91 = getelementptr inbounds [30 x ptr], ptr %90, i64 0, i64 0
  call void @llvm.memset.p0.i64(ptr align 8 %91, i8 0, i64 240, i1 false)
  %92 = load ptr, ptr %11, align 8
  %93 = load i64, ptr %7, align 8
  %94 = add i64 40, %93
  %95 = call noalias ptr @_zend_mm_alloc(ptr noundef %92, i64 noundef %94) #23
  store ptr %95, ptr %9, align 8
  %96 = load ptr, ptr %9, align 8
  %97 = icmp ne ptr %96, null
  br i1 %97, label %105, label %98

98:                                               ; preds = %30
  %99 = load ptr, ptr %5, align 8
  %100 = getelementptr inbounds %struct._zend_mm_handlers, ptr %99, i32 0, i32 1
  %101 = load ptr, ptr %100, align 8
  %102 = load ptr, ptr %10, align 8
  call void %101(ptr noundef %8, ptr noundef %102, i64 noundef 2097152)
  %103 = load ptr, ptr @stderr, align 8
  %104 = call i32 (ptr, ptr, ...) @fprintf(ptr noundef %103, ptr noundef @.str.2) #20
  store ptr null, ptr %4, align 8
  br label %124

105:                                              ; preds = %30
  %106 = load ptr, ptr %9, align 8
  call void @llvm.memcpy.p0.p0.i64(ptr align 8 %106, ptr align 8 %8, i64 40, i1 false)
  %107 = load ptr, ptr %6, align 8
  %108 = icmp ne ptr %107, null
  br i1 %108, label %109, label %119

109:                                              ; preds = %105
  %110 = load ptr, ptr %9, align 8
  %111 = getelementptr inbounds i8, ptr %110, i64 40
  %112 = load ptr, ptr %9, align 8
  %113 = getelementptr inbounds %struct._zend_mm_storage, ptr %112, i32 0, i32 1
  store ptr %111, ptr %113, align 8
  %114 = load ptr, ptr %9, align 8
  %115 = getelementptr inbounds %struct._zend_mm_storage, ptr %114, i32 0, i32 1
  %116 = load ptr, ptr %115, align 8
  %117 = load ptr, ptr %6, align 8
  %118 = load i64, ptr %7, align 8
  call void @llvm.memcpy.p0.p0.i64(ptr align 1 %116, ptr align 1 %117, i64 %118, i1 false)
  br label %119

119:                                              ; preds = %109, %105
  %120 = load ptr, ptr %9, align 8
  %121 = load ptr, ptr %11, align 8
  %122 = getelementptr inbounds %struct._zend_mm_heap, ptr %121, i32 0, i32 1
  store ptr %120, ptr %122, align 8
  %123 = load ptr, ptr %11, align 8
  store ptr %123, ptr %4, align 8
  br label %124

124:                                              ; preds = %119, %98, %27
  %125 = load ptr, ptr %4, align 8
  ret ptr %125
}