; Function Attrs: nounwind uwtable
define ptr @zend_mm_startup_ex(ptr nocapture noundef readonly %0, ptr noundef %1, i64 noundef %2) local_unnamed_addr #0 {
  %4 = alloca %struct._zend_mm_storage, align 8
  call void @llvm.memcpy.p0.p0.i64(ptr noundef nonnull align 8 dereferenceable(32) %4, ptr noundef nonnull align 8 dereferenceable(32) %0, i64 32, i1 false)
  %5 = getelementptr inbounds i8, ptr %4, i64 32
  store ptr %1, ptr %5, align 8
  %6 = load ptr, ptr %0, align 8
  %7 = call ptr %6(ptr noundef nonnull %4, i64 noundef 2097152, i64 noundef 2097152) #35
  %8 = icmp eq ptr %7, null
  br i1 %8, label %9, label %12

9:                                                ; preds = %3
  %10 = load ptr, ptr @stderr, align 8
  %11 = call i64 @fwrite(ptr nonnull @.str.2, i64 22, i64 1, ptr %10) #45
  br label %49

12:                                               ; preds = %3
  %13 = getelementptr inbounds i8, ptr %7, i64 64
  store ptr %13, ptr %7, align 8
  %14 = getelementptr inbounds i8, ptr %7, i64 8
  store ptr %7, ptr %14, align 8
  %15 = getelementptr inbounds i8, ptr %7, i64 16
  store ptr %7, ptr %15, align 8
  %16 = getelementptr inbounds i8, ptr %7, i64 24
  store i32 511, ptr %16, align 8
  %17 = getelementptr inbounds i8, ptr %7, i64 28
  store i32 1, ptr %17, align 4
  %18 = getelementptr inbounds i8, ptr %7, i64 32
  store i32 0, ptr %18, align 8
  %19 = getelementptr inbounds i8, ptr %7, i64 456
  store i64 1, ptr %19, align 8
  %20 = getelementptr inbounds i8, ptr %7, i64 520
  store i32 1073741825, ptr %20, align 8
  %21 = getelementptr inbounds i8, ptr %7, i64 376
  store ptr %7, ptr %21, align 8
  %22 = getelementptr inbounds i8, ptr %7, i64 384
  store ptr null, ptr %22, align 8
  %23 = getelementptr inbounds i8, ptr %7, i64 392
  store i32 1, ptr %23, align 8
  %24 = getelementptr inbounds i8, ptr %7, i64 396
  store i32 1, ptr %24, align 4
  %25 = getelementptr inbounds i8, ptr %7, i64 400
  store i32 0, ptr %25, align 8
  %26 = getelementptr inbounds i8, ptr %7, i64 408
  store double 1.000000e+00, ptr %26, align 8
  %27 = getelementptr inbounds i8, ptr %7, i64 416
  store i32 0, ptr %27, align 8
  %28 = getelementptr inbounds i8, ptr %7, i64 420
  store i32 0, ptr %28, align 4
  %29 = getelementptr inbounds i8, ptr %7, i64 336
  store i64 2097152, ptr %29, align 8
  %30 = getelementptr inbounds i8, ptr %7, i64 344
  store i64 2097152, ptr %30, align 8
  %31 = getelementptr inbounds i8, ptr %7, i64 80
  %32 = getelementptr inbounds i8, ptr %7, i64 352
  call void @llvm.memset.p0.i64(ptr noundef nonnull align 8 dereferenceable(16) %31, i8 0, i64 16, i1 false)
  store i64 9223372036854775807, ptr %32, align 8
  %33 = getelementptr inbounds i8, ptr %7, i64 360
  store i32 0, ptr %33, align 8
  store i32 0, ptr %13, align 8
  %34 = getelementptr inbounds i8, ptr %7, i64 72
  store ptr %4, ptr %34, align 8
  %35 = getelementptr inbounds i8, ptr %7, i64 368
  store ptr null, ptr %35, align 8
  %36 = getelementptr inbounds i8, ptr %7, i64 96
  call void @llvm.memset.p0.i64(ptr noundef nonnull align 8 dereferenceable(240) %36, i8 0, i64 240, i1 false)
  %37 = add i64 %2, 40
  %38 = call noalias ptr @_zend_mm_alloc(ptr noundef nonnull %13, i64 noundef %37) #40
  %.not = icmp eq ptr %38, null
  br i1 %.not, label %39, label %44

39:                                               ; preds = %12
  %40 = getelementptr inbounds i8, ptr %0, i64 8
  %41 = load ptr, ptr %40, align 8
  call void %41(ptr noundef nonnull %4, ptr noundef nonnull %7, i64 noundef 2097152) #35
  %42 = load ptr, ptr @stderr, align 8
  %43 = call i64 @fwrite(ptr nonnull @.str.2, i64 22, i64 1, ptr %42) #45
  br label %49

44:                                               ; preds = %12
  call void @llvm.memcpy.p0.p0.i64(ptr noundef nonnull align 8 dereferenceable(40) %38, ptr noundef nonnull align 8 dereferenceable(40) %4, i64 40, i1 false)
  %.not53 = icmp eq ptr %1, null
  br i1 %.not53, label %48, label %45

45:                                               ; preds = %44
  %46 = getelementptr inbounds i8, ptr %38, i64 40
  %47 = getelementptr inbounds i8, ptr %38, i64 32
  store ptr %46, ptr %47, align 8
  call void @llvm.memcpy.p0.p0.i64(ptr nonnull align 1 %46, ptr nonnull align 1 %1, i64 %2, i1 false)
  br label %48

48:                                               ; preds = %45, %44
  store ptr %38, ptr %34, align 8
  br label %49

49:                                               ; preds = %48, %39, %9
  %.0 = phi ptr [ null, %9 ], [ %13, %48 ], [ null, %39 ]
  ret ptr %.0
}